target datalayout = "e-m:e-p270:32:32-p271:32:32-p272:64:64-i64:64-i128:128-f80:128-n8:16:32:64-S128"
target triple = "x86_64-unknown-linux-gnu"

%"class.std::__cxx11::basic_string" = type { %"struct.std::__cxx11::basic_string<char>::_Alloc_hider", i64, %union.anon }
%"struct.std::__cxx11::basic_string<char>::_Alloc_hider" = type { ptr }
%union.anon = type { i64, [8 x i8] }
%"class.facebook::velox::common::Filter" = type { %"class.facebook::velox::ISerializable", i8, i8, i32 }
%"class.facebook::velox::ISerializable" = type { ptr }
%"class.std::basic_string_view" = type { i64, ptr }
%"class.folly::Range" = type { ptr, ptr }
%"struct.folly::dynamic" = type { i32, %"union.folly::dynamic::Data" }
%"union.folly::dynamic::Data" = type { %"class.std::__cxx11::basic_string" }
%"class.facebook::velox::common::AbstractRange.base" = type <{ %"class.facebook::velox::common::Filter", i8, i8, i8, i8 }>
%"class.facebook::velox::common::BytesRange" = type <{ %"class.facebook::velox::common::AbstractRange.base", [4 x i8], %"class.std::__cxx11::basic_string", %"class.std::__cxx11::basic_string", i8, [7 x i8] }>

@.str.13 = private unnamed_addr constant [11 x i8] c"BytesRange\00", align 1
@.str.31 = private unnamed_addr constant [6 x i8] c"lower\00", align 1
@.str.32 = private unnamed_addr constant [6 x i8] c"upper\00", align 1
@.str.41 = private unnamed_addr constant [12 x i8] c"singleValue\00", align 1

; Function Attrs: mustprogress nounwind uwtable
define linkonce_odr noundef ptr @_ZN5folly7dynamic11GetAddrImplIbE3getERNS0_4DataE(ptr noundef nonnull align 8 dereferenceable(32) %d) #3 comdat align 2 {
entry:
  %d.addr = alloca ptr, align 8
  store ptr %d, ptr %d.addr, align 8
  %0 = load ptr, ptr %d.addr, align 8
  ret ptr %0
}

; Function Attrs: mustprogress nounwind uwtable
define linkonce_odr noundef i64 @_ZN5folly6detail25constexpr_strlen_internalIcLm0EEEmPKT_i(ptr noundef %s, i32 noundef %0) #3 comdat {
entry:
  %s.addr = alloca ptr, align 8
  %.addr = alloca i32, align 4
  store ptr %s, ptr %s.addr, align 8
  store i32 %0, ptr %.addr, align 4
  %1 = load ptr, ptr %s.addr, align 8
  %call = call i64 @strlen(ptr noundef %1) #13
  ret i64 %call
}

; Function Attrs: mustprogress nounwind uwtable
define linkonce_odr noundef ptr @_ZN5folly7dynamic10getAddressIbEEPT_v(ptr noundef nonnull align 8 dereferenceable(40) %this) #3 comdat align 2 {
entry:
  %this.addr = alloca ptr, align 8
  store ptr %this, ptr %this.addr, align 8
  %this1 = load ptr, ptr %this.addr, align 8
  %u_ = getelementptr inbounds %"struct.folly::dynamic", ptr %this1, i32 0, i32 1
  %call = call noundef ptr @_ZN5folly7dynamic11GetAddrImplIbE3getERNS0_4DataE(ptr noundef nonnull align 8 dereferenceable(32) %u_) #13
  ret ptr %call
}

; Function Attrs: mustprogress nounwind uwtable
define linkonce_odr void @_ZN5folly7dynamic4DataD2Ev(ptr noundef nonnull align 8 dereferenceable(32) %this) unnamed_addr #3 comdat align 2 {
entry:
  %this.addr = alloca ptr, align 8
  store ptr %this, ptr %this.addr, align 8
  ret void
}

; Function Attrs: mustprogress nounwind uwtable
define linkonce_odr noundef i64 @_ZN5folly16constexpr_strlenIcEEmPKT_(ptr noundef %s) #3 comdat {
entry:
  %s.addr = alloca ptr, align 8
  store ptr %s, ptr %s.addr, align 8
  %0 = load ptr, ptr %s.addr, align 8
  %call = call noundef i64 @_ZN5folly6detail25constexpr_strlen_internalIcLm0EEEmPKT_i(ptr noundef %0, i32 noundef 0) #13
  ret i64 %call
}

; Function Attrs: mustprogress nounwind uwtable
define linkonce_odr void @_ZN5folly7dynamic4DataC2Ev(ptr noundef nonnull align 8 dereferenceable(32) %this) unnamed_addr #3 comdat align 2 {
entry:
  %this.addr = alloca ptr, align 8
  store ptr %this, ptr %this.addr, align 8
  %this1 = load ptr, ptr %this.addr, align 8
  store ptr null, ptr %this1, align 8
  ret void
}

; Function Attrs: noreturn nounwind uwtable
define linkonce_odr hidden void @__clang_call_terminate(ptr noundef %0) #10 comdat {
  %2 = call ptr @__cxa_begin_catch(ptr %0) #13
  call void @_ZSt9terminatev() #33
  unreachable
}

; Function Attrs: mustprogress nounwind uwtable
define linkonce_odr noundef i64 @_ZNSt11char_traitsIcE6lengthEPKc(ptr noundef %__s) #3 comdat align 2 {
entry:
  %__s.addr = alloca ptr, align 8
  store ptr %__s, ptr %__s.addr, align 8
  %0 = load ptr, ptr %__s.addr, align 8
  %call = call i64 @strlen(ptr noundef %0) #13
  ret i64 %call
}

; Function Attrs: mustprogress uwtable
define linkonce_odr void @_ZN5folly7dynamicC2IbbEET_(ptr noundef nonnull align 8 dereferenceable(40) %this, i1 noundef zeroext %t) unnamed_addr #0 comdat align 2 {
entry:
  %this.addr = alloca ptr, align 8
  %t.addr = alloca i8, align 1
  store ptr %this, ptr %this.addr, align 8
  %frombool = zext i1 %t to i8
  store i8 %frombool, ptr %t.addr, align 1
  %this1 = load ptr, ptr %this.addr, align 8
  %u_ = getelementptr inbounds %"struct.folly::dynamic", ptr %this1, i32 0, i32 1
  call void @_ZN5folly7dynamic4DataC2Ev(ptr noundef nonnull align 8 dereferenceable(32) %u_)
  %type_ = getelementptr inbounds %"struct.folly::dynamic", ptr %this1, i32 0, i32 0
  store i32 2, ptr %type_, align 8
  %call = call noundef ptr @_ZN5folly7dynamic10getAddressIbEEPT_v(ptr noundef nonnull align 8 dereferenceable(40) %this1) #13
  %0 = load i8, ptr %t.addr, align 1
  %tobool = trunc i8 %0 to i1
  %frombool2 = zext i1 %tobool to i8
  store i8 %frombool2, ptr %call, align 1
  ret void
}

; Function Attrs: mustprogress nounwind uwtable
define linkonce_odr void @_ZN5folly7dynamicD2Ev(ptr noundef nonnull align 8 dereferenceable(40) %this) unnamed_addr #3 comdat align 2 {
entry:
  %this.addr = alloca ptr, align 8
  store ptr %this, ptr %this.addr, align 8
  %this1 = load ptr, ptr %this.addr, align 8
  call void @_ZN5folly7dynamic7destroyEv(ptr noundef nonnull align 8 dereferenceable(40) %this1) #13
  %u_ = getelementptr inbounds %"struct.folly::dynamic", ptr %this1, i32 0, i32 1
  call void @_ZN5folly7dynamic4DataD2Ev(ptr noundef nonnull align 8 dereferenceable(32) %u_) #13
  ret void
}

; Function Attrs: mustprogress nounwind uwtable
define linkonce_odr void @_ZN5folly5RangeIPKcEC2ES2_(ptr noundef nonnull align 8 dereferenceable(16) %this, ptr noundef %str) unnamed_addr #3 comdat align 2 {
entry:
  %this.addr = alloca ptr, align 8
  %str.addr = alloca ptr, align 8
  store ptr %this, ptr %this.addr, align 8
  store ptr %str, ptr %str.addr, align 8
  %this1 = load ptr, ptr %this.addr, align 8
  %b_ = getelementptr inbounds %"class.folly::Range", ptr %this1, i32 0, i32 0
  %0 = load ptr, ptr %str.addr, align 8
  store ptr %0, ptr %b_, align 8
  %e_ = getelementptr inbounds %"class.folly::Range", ptr %this1, i32 0, i32 1
  %1 = load ptr, ptr %str.addr, align 8
  %2 = load ptr, ptr %str.addr, align 8
  %call = call noundef i64 @_ZN5folly16constexpr_strlenIcEEmPKT_(ptr noundef %2) #13
  %add.ptr = getelementptr inbounds i8, ptr %1, i64 %call
  store ptr %add.ptr, ptr %e_, align 8
  ret void
}

; Function Attrs: mustprogress uwtable
define linkonce_odr void @_ZN5folly7dynamicC2ENSt7__cxx1112basic_stringIcSt11char_traitsIcESaIcEEE(ptr noundef nonnull align 8 dereferenceable(40) %this, ptr noundef %s) unnamed_addr #0 comdat align 2 {
entry:
  %this.addr = alloca ptr, align 8
  %s.indirect_addr = alloca ptr, align 8
  store ptr %this, ptr %this.addr, align 8
  store ptr %s, ptr %s.indirect_addr, align 8
  %this1 = load ptr, ptr %this.addr, align 8
  %type_ = getelementptr inbounds %"struct.folly::dynamic", ptr %this1, i32 0, i32 0
  store i32 6, ptr %type_, align 8
  %u_ = getelementptr inbounds %"struct.folly::dynamic", ptr %this1, i32 0, i32 1
  call void @_ZN5folly7dynamic4DataC2Ev(ptr noundef nonnull align 8 dereferenceable(32) %u_)
  %u_2 = getelementptr inbounds %"struct.folly::dynamic", ptr %this1, i32 0, i32 1
  call void @_ZNSt7__cxx1112basic_stringIcSt11char_traitsIcESaIcEEC1EOS4_(ptr noundef nonnull align 8 dereferenceable(32) %u_2, ptr noundef nonnull align 8 dereferenceable(32) %s) #13
  ret void
}

; Function Attrs: mustprogress nounwind uwtable
define linkonce_odr void @_ZNSt17basic_string_viewIcSt11char_traitsIcEEC2EPKc(ptr noundef nonnull align 8 dereferenceable(16) %this, ptr noundef nonnull %__str) unnamed_addr #3 comdat align 2 personality ptr @__gxx_personality_v0 {
entry:
  %this.addr = alloca ptr, align 8
  %__str.addr = alloca ptr, align 8
  store ptr %this, ptr %this.addr, align 8
  store ptr %__str, ptr %__str.addr, align 8
  %this1 = load ptr, ptr %this.addr, align 8
  %_M_len = getelementptr inbounds %"class.std::basic_string_view", ptr %this1, i32 0, i32 0
  %0 = load ptr, ptr %__str.addr, align 8
  %call = invoke noundef i64 @_ZNSt11char_traitsIcE6lengthEPKc(ptr noundef %0)
          to label %invoke.cont unwind label %terminate.lpad

invoke.cont:                                      ; preds = %entry
  store i64 %call, ptr %_M_len, align 8
  %_M_str = getelementptr inbounds %"class.std::basic_string_view", ptr %this1, i32 0, i32 1
  %1 = load ptr, ptr %__str.addr, align 8
  store ptr %1, ptr %_M_str, align 8
  ret void

terminate.lpad:                                   ; preds = %entry
  %2 = landingpad { ptr, i32 }
          catch ptr null
  %3 = extractvalue { ptr, i32 } %2, 0
  call void @__clang_call_terminate(ptr %3) #33
  unreachable
}

; Function Attrs: mustprogress uwtable
define void @_ZNK8facebook5velox6common10BytesRange9serializeEv(ptr noalias sret(%"struct.folly::dynamic") align 8 %agg.result, ptr noundef nonnull align 8 dereferenceable(96) %this) unnamed_addr #0 align 2 personality ptr @__gxx_personality_v0 {
entry:
  %result.ptr = alloca ptr, align 8
  %this.addr = alloca ptr, align 8
  %nrvo = alloca i1, align 1
  %agg.tmp = alloca %"class.std::basic_string_view", align 8
  %ref.tmp = alloca %"struct.folly::dynamic", align 8
  %agg.tmp2 = alloca %"class.std::__cxx11::basic_string", align 8
  %exn.slot = alloca ptr, align 8
  %ehselector.slot = alloca i32, align 4
  %agg.tmp5 = alloca %"class.folly::Range", align 8
  %ref.tmp10 = alloca %"struct.folly::dynamic", align 8
  %agg.tmp11 = alloca %"class.std::__cxx11::basic_string", align 8
  %agg.tmp15 = alloca %"class.folly::Range", align 8
  %ref.tmp23 = alloca %"struct.folly::dynamic", align 8
  %agg.tmp25 = alloca %"class.folly::Range", align 8
  store ptr %agg.result, ptr %result.ptr, align 8
  store ptr %this, ptr %this.addr, align 8
  %this1 = load ptr, ptr %this.addr, align 8
  store i1 false, ptr %nrvo, align 1
  call void @_ZNSt17basic_string_viewIcSt11char_traitsIcEEC2EPKc(ptr noundef nonnull align 8 dereferenceable(16) %agg.tmp, ptr noundef @.str.13) #13
  %0 = getelementptr inbounds { i64, ptr }, ptr %agg.tmp, i32 0, i32 0
  %1 = load i64, ptr %0, align 8
  %2 = getelementptr inbounds { i64, ptr }, ptr %agg.tmp, i32 0, i32 1
  %3 = load ptr, ptr %2, align 8
  call void @_ZNK8facebook5velox6common13AbstractRange13serializeBaseESt17basic_string_viewIcSt11char_traitsIcEE(ptr sret(%"struct.folly::dynamic") align 8 %agg.result, ptr noundef nonnull align 8 dereferenceable(20) %this1, i64 %1, ptr %3)
  %lower_ = getelementptr inbounds %"class.facebook::velox::common::BytesRange", ptr %this1, i32 0, i32 2
  invoke void @_ZNSt7__cxx1112basic_stringIcSt11char_traitsIcESaIcEEC1ERKS4_(ptr noundef nonnull align 8 dereferenceable(32) %agg.tmp2, ptr noundef nonnull align 8 dereferenceable(32) %lower_)
          to label %invoke.cont unwind label %lpad

invoke.cont:                                      ; preds = %entry
  invoke void @_ZN5folly7dynamicC2ENSt7__cxx1112basic_stringIcSt11char_traitsIcESaIcEEE(ptr noundef nonnull align 8 dereferenceable(40) %ref.tmp, ptr noundef %agg.tmp2)
          to label %invoke.cont4 unwind label %lpad3

invoke.cont4:                                     ; preds = %invoke.cont
  invoke void @_ZN5folly5RangeIPKcEC2ES2_(ptr noundef nonnull align 8 dereferenceable(16) %agg.tmp5, ptr noundef @.str.31)
          to label %invoke.cont7 unwind label %lpad6

invoke.cont7:                                     ; preds = %invoke.cont4
  %4 = getelementptr inbounds { ptr, ptr }, ptr %agg.tmp5, i32 0, i32 0
  %5 = load ptr, ptr %4, align 8
  %6 = getelementptr inbounds { ptr, ptr }, ptr %agg.tmp5, i32 0, i32 1
  %7 = load ptr, ptr %6, align 8
  %call = invoke noundef nonnull align 8 dereferenceable(40) ptr @_ZNR5folly7dynamicixENS_5RangeIPKcEE(ptr noundef nonnull align 8 dereferenceable(40) %agg.result, ptr %5, ptr %7)
          to label %invoke.cont8 unwind label %lpad6

invoke.cont8:                                     ; preds = %invoke.cont7
  %call9 = call noundef nonnull align 8 dereferenceable(40) ptr @_ZN5folly7dynamicaSEOS0_(ptr noundef nonnull align 8 dereferenceable(40) %call, ptr noundef nonnull align 8 dereferenceable(40) %ref.tmp) #13
  call void @_ZN5folly7dynamicD2Ev(ptr noundef nonnull align 8 dereferenceable(40) %ref.tmp) #13
  call void @_ZNSt7__cxx1112basic_stringIcSt11char_traitsIcESaIcEED1Ev(ptr noundef nonnull align 8 dereferenceable(32) %agg.tmp2) #13
  %upper_ = getelementptr inbounds %"class.facebook::velox::common::BytesRange", ptr %this1, i32 0, i32 3
  invoke void @_ZNSt7__cxx1112basic_stringIcSt11char_traitsIcESaIcEEC1ERKS4_(ptr noundef nonnull align 8 dereferenceable(32) %agg.tmp11, ptr noundef nonnull align 8 dereferenceable(32) %upper_)
          to label %invoke.cont12 unwind label %lpad

invoke.cont12:                                    ; preds = %invoke.cont8
  invoke void @_ZN5folly7dynamicC2ENSt7__cxx1112basic_stringIcSt11char_traitsIcESaIcEEE(ptr noundef nonnull align 8 dereferenceable(40) %ref.tmp10, ptr noundef %agg.tmp11)
          to label %invoke.cont14 unwind label %lpad13

invoke.cont14:                                    ; preds = %invoke.cont12
  invoke void @_ZN5folly5RangeIPKcEC2ES2_(ptr noundef nonnull align 8 dereferenceable(16) %agg.tmp15, ptr noundef @.str.32)
          to label %invoke.cont17 unwind label %lpad16

invoke.cont17:                                    ; preds = %invoke.cont14
  %8 = getelementptr inbounds { ptr, ptr }, ptr %agg.tmp15, i32 0, i32 0
  %9 = load ptr, ptr %8, align 8
  %10 = getelementptr inbounds { ptr, ptr }, ptr %agg.tmp15, i32 0, i32 1
  %11 = load ptr, ptr %10, align 8
  %call19 = invoke noundef nonnull align 8 dereferenceable(40) ptr @_ZNR5folly7dynamicixENS_5RangeIPKcEE(ptr noundef nonnull align 8 dereferenceable(40) %agg.result, ptr %9, ptr %11)
          to label %invoke.cont18 unwind label %lpad16

invoke.cont18:                                    ; preds = %invoke.cont17
  %call20 = call noundef nonnull align 8 dereferenceable(40) ptr @_ZN5folly7dynamicaSEOS0_(ptr noundef nonnull align 8 dereferenceable(40) %call19, ptr noundef nonnull align 8 dereferenceable(40) %ref.tmp10) #13
  call void @_ZN5folly7dynamicD2Ev(ptr noundef nonnull align 8 dereferenceable(40) %ref.tmp10) #13
  call void @_ZNSt7__cxx1112basic_stringIcSt11char_traitsIcESaIcEED1Ev(ptr noundef nonnull align 8 dereferenceable(32) %agg.tmp11) #13
  %singleValue_ = getelementptr inbounds %"class.facebook::velox::common::BytesRange", ptr %this1, i32 0, i32 4
  %12 = load i8, ptr %singleValue_, align 8
  %tobool = trunc i8 %12 to i1
  invoke void @_ZN5folly7dynamicC2IbbEET_(ptr noundef nonnull align 8 dereferenceable(40) %ref.tmp23, i1 noundef zeroext %tobool)
          to label %invoke.cont24 unwind label %lpad

invoke.cont24:                                    ; preds = %invoke.cont18
  invoke void @_ZN5folly5RangeIPKcEC2ES2_(ptr noundef nonnull align 8 dereferenceable(16) %agg.tmp25, ptr noundef @.str.41)
          to label %invoke.cont27 unwind label %lpad26

invoke.cont27:                                    ; preds = %invoke.cont24
  %13 = getelementptr inbounds { ptr, ptr }, ptr %agg.tmp25, i32 0, i32 0
  %14 = load ptr, ptr %13, align 8
  %15 = getelementptr inbounds { ptr, ptr }, ptr %agg.tmp25, i32 0, i32 1
  %16 = load ptr, ptr %15, align 8
  %call29 = invoke noundef nonnull align 8 dereferenceable(40) ptr @_ZNR5folly7dynamicixENS_5RangeIPKcEE(ptr noundef nonnull align 8 dereferenceable(40) %agg.result, ptr %14, ptr %16)
          to label %invoke.cont28 unwind label %lpad26

invoke.cont28:                                    ; preds = %invoke.cont27
  %call30 = call noundef nonnull align 8 dereferenceable(40) ptr @_ZN5folly7dynamicaSEOS0_(ptr noundef nonnull align 8 dereferenceable(40) %call29, ptr noundef nonnull align 8 dereferenceable(40) %ref.tmp23) #13
  call void @_ZN5folly7dynamicD2Ev(ptr noundef nonnull align 8 dereferenceable(40) %ref.tmp23) #13
  store i1 true, ptr %nrvo, align 1
  %nrvo.val = load i1, ptr %nrvo, align 1
  br i1 %nrvo.val, label %nrvo.skipdtor, label %nrvo.unused

lpad:                                             ; preds = %invoke.cont18, %invoke.cont8, %entry
  %17 = landingpad { ptr, i32 }
          cleanup
  %18 = extractvalue { ptr, i32 } %17, 0
  store ptr %18, ptr %exn.slot, align 8
  %19 = extractvalue { ptr, i32 } %17, 1
  store i32 %19, ptr %ehselector.slot, align 4
  br label %ehcleanup32

lpad3:                                            ; preds = %invoke.cont
  %20 = landingpad { ptr, i32 }
          cleanup
  %21 = extractvalue { ptr, i32 } %20, 0
  store ptr %21, ptr %exn.slot, align 8
  %22 = extractvalue { ptr, i32 } %20, 1
  store i32 %22, ptr %ehselector.slot, align 4
  br label %ehcleanup

lpad6:                                            ; preds = %invoke.cont7, %invoke.cont4
  %23 = landingpad { ptr, i32 }
          cleanup
  %24 = extractvalue { ptr, i32 } %23, 0
  store ptr %24, ptr %exn.slot, align 8
  %25 = extractvalue { ptr, i32 } %23, 1
  store i32 %25, ptr %ehselector.slot, align 4
  call void @_ZN5folly7dynamicD2Ev(ptr noundef nonnull align 8 dereferenceable(40) %ref.tmp) #13
  br label %ehcleanup

ehcleanup:                                        ; preds = %lpad6, %lpad3
  call void @_ZNSt7__cxx1112basic_stringIcSt11char_traitsIcESaIcEED1Ev(ptr noundef nonnull align 8 dereferenceable(32) %agg.tmp2) #13
  br label %ehcleanup32

lpad13:                                           ; preds = %invoke.cont12
  %26 = landingpad { ptr, i32 }
          cleanup
  %27 = extractvalue { ptr, i32 } %26, 0
  store ptr %27, ptr %exn.slot, align 8
  %28 = extractvalue { ptr, i32 } %26, 1
  store i32 %28, ptr %ehselector.slot, align 4
  br label %ehcleanup22

lpad16:                                           ; preds = %invoke.cont17, %invoke.cont14
  %29 = landingpad { ptr, i32 }
          cleanup
  %30 = extractvalue { ptr, i32 } %29, 0
  store ptr %30, ptr %exn.slot, align 8
  %31 = extractvalue { ptr, i32 } %29, 1
  store i32 %31, ptr %ehselector.slot, align 4
  call void @_ZN5folly7dynamicD2Ev(ptr noundef nonnull align 8 dereferenceable(40) %ref.tmp10) #13
  br label %ehcleanup22

ehcleanup22:                                      ; preds = %lpad16, %lpad13
  call void @_ZNSt7__cxx1112basic_stringIcSt11char_traitsIcESaIcEED1Ev(ptr noundef nonnull align 8 dereferenceable(32) %agg.tmp11) #13
  br label %ehcleanup32

lpad26:                                           ; preds = %invoke.cont27, %invoke.cont24
  %32 = landingpad { ptr, i32 }
          cleanup
  %33 = extractvalue { ptr, i32 } %32, 0
  store ptr %33, ptr %exn.slot, align 8
  %34 = extractvalue { ptr, i32 } %32, 1
  store i32 %34, ptr %ehselector.slot, align 4
  call void @_ZN5folly7dynamicD2Ev(ptr noundef nonnull align 8 dereferenceable(40) %ref.tmp23) #13
  br label %ehcleanup32

nrvo.unused:                                      ; preds = %invoke.cont28
  call void @_ZN5folly7dynamicD2Ev(ptr noundef nonnull align 8 dereferenceable(40) %agg.result) #13
  br label %nrvo.skipdtor

nrvo.skipdtor:                                    ; preds = %nrvo.unused, %invoke.cont28
  ret void

ehcleanup32:                                      ; preds = %lpad26, %ehcleanup22, %ehcleanup, %lpad
  call void @_ZN5folly7dynamicD2Ev(ptr noundef nonnull align 8 dereferenceable(40) %agg.result) #13
  br label %eh.resume

eh.resume:                                        ; preds = %ehcleanup32
  %exn = load ptr, ptr %exn.slot, align 8
  %sel = load i32, ptr %ehselector.slot, align 4
  %lpad.val = insertvalue { ptr, i32 } poison, ptr %exn, 0
  %lpad.val33 = insertvalue { ptr, i32 } %lpad.val, i32 %sel, 1
  resume { ptr, i32 } %lpad.val33
}