; Function Attrs: mustprogress uwtable
define void @_ZNK8facebook5velox6common10BytesRange9serializeEv(ptr noalias sret(%"struct.folly::dynamic") align 8 %agg.result, ptr noundef nonnull align 8 dereferenceable(96) %this) unnamed_addr #0 align 2 personality ptr @__gxx_personality_v0 {
entry:
  %ref.tmp = alloca %"struct.folly::dynamic", align 8
  %agg.tmp2 = alloca %"class.std::__cxx11::basic_string", align 8
  %ref.tmp10 = alloca %"struct.folly::dynamic", align 8
  %agg.tmp11 = alloca %"class.std::__cxx11::basic_string", align 8
  %ref.tmp23 = alloca %"struct.folly::dynamic", align 8
  tail call void @_ZNK8facebook5velox6common13AbstractRange13serializeBaseESt17basic_string_viewIcSt11char_traitsIcEE(ptr sret(%"struct.folly::dynamic") align 8 %agg.result, ptr noundef nonnull align 8 dereferenceable(20) %this, i64 10, ptr nonnull @.str.13)
  %lower_ = getelementptr inbounds i8, ptr %this, i64 24
  invoke void @_ZNSt7__cxx1112basic_stringIcSt11char_traitsIcESaIcEEC1ERKS4_(ptr noundef nonnull align 8 dereferenceable(32) %agg.tmp2, ptr noundef nonnull align 8 dereferenceable(32) %lower_)
          to label %invoke.cont4 unwind label %lpad

invoke.cont4:                                     ; preds = %entry
  store i32 6, ptr %ref.tmp, align 8
  %u_.i = getelementptr inbounds i8, ptr %ref.tmp, i64 8
  store ptr null, ptr %u_.i, align 8
  call void @_ZNSt7__cxx1112basic_stringIcSt11char_traitsIcESaIcEEC1EOS4_(ptr noundef nonnull align 8 dereferenceable(32) %u_.i, ptr noundef nonnull align 8 dereferenceable(32) %agg.tmp2) #34
  %call = invoke noundef nonnull align 8 dereferenceable(40) ptr @_ZNR5folly7dynamicixENS_5RangeIPKcEE(ptr noundef nonnull align 8 dereferenceable(40) %agg.result, ptr nonnull @.str.31, ptr nonnull getelementptr inbounds ([6 x i8], ptr @.str.31, i64 0, i64 5))
          to label %invoke.cont8 unwind label %lpad6

invoke.cont8:                                     ; preds = %invoke.cont4
  %call9 = call noundef nonnull align 8 dereferenceable(40) ptr @_ZN5folly7dynamicaSEOS0_(ptr noundef nonnull align 8 dereferenceable(40) %call, ptr noundef nonnull align 8 dereferenceable(40) %ref.tmp) #34
  call void @_ZN5folly7dynamic7destroyEv(ptr noundef nonnull align 8 dereferenceable(40) %ref.tmp) #34
  call void @_ZNSt7__cxx1112basic_stringIcSt11char_traitsIcESaIcEED1Ev(ptr noundef nonnull align 8 dereferenceable(32) %agg.tmp2) #34
  %upper_ = getelementptr inbounds i8, ptr %this, i64 56
  invoke void @_ZNSt7__cxx1112basic_stringIcSt11char_traitsIcESaIcEEC1ERKS4_(ptr noundef nonnull align 8 dereferenceable(32) %agg.tmp11, ptr noundef nonnull align 8 dereferenceable(32) %upper_)
          to label %invoke.cont14 unwind label %lpad

invoke.cont14:                                    ; preds = %invoke.cont8
  store i32 6, ptr %ref.tmp10, align 8
  %u_.i6 = getelementptr inbounds i8, ptr %ref.tmp10, i64 8
  store ptr null, ptr %u_.i6, align 8
  call void @_ZNSt7__cxx1112basic_stringIcSt11char_traitsIcESaIcEEC1EOS4_(ptr noundef nonnull align 8 dereferenceable(32) %u_.i6, ptr noundef nonnull align 8 dereferenceable(32) %agg.tmp11) #34
  %call19 = invoke noundef nonnull align 8 dereferenceable(40) ptr @_ZNR5folly7dynamicixENS_5RangeIPKcEE(ptr noundef nonnull align 8 dereferenceable(40) %agg.result, ptr nonnull @.str.32, ptr nonnull getelementptr inbounds ([6 x i8], ptr @.str.32, i64 0, i64 5))
          to label %invoke.cont24 unwind label %lpad16

invoke.cont24:                                    ; preds = %invoke.cont14
  %call20 = call noundef nonnull align 8 dereferenceable(40) ptr @_ZN5folly7dynamicaSEOS0_(ptr noundef nonnull align 8 dereferenceable(40) %call19, ptr noundef nonnull align 8 dereferenceable(40) %ref.tmp10) #34
  call void @_ZN5folly7dynamic7destroyEv(ptr noundef nonnull align 8 dereferenceable(40) %ref.tmp10) #34
  call void @_ZNSt7__cxx1112basic_stringIcSt11char_traitsIcESaIcEED1Ev(ptr noundef nonnull align 8 dereferenceable(32) %agg.tmp11) #34
  %singleValue_ = getelementptr inbounds i8, ptr %this, i64 88
  %0 = load i8, ptr %singleValue_, align 8
  %1 = and i8 %0, 1
  %u_.i10 = getelementptr inbounds i8, ptr %ref.tmp23, i64 8
  store ptr null, ptr %u_.i10, align 8
  store i32 2, ptr %ref.tmp23, align 8
  store i8 %1, ptr %u_.i10, align 8
  %call29 = invoke noundef nonnull align 8 dereferenceable(40) ptr @_ZNR5folly7dynamicixENS_5RangeIPKcEE(ptr noundef nonnull align 8 dereferenceable(40) %agg.result, ptr nonnull @.str.41, ptr nonnull getelementptr inbounds ([12 x i8], ptr @.str.41, i64 0, i64 11))
          to label %invoke.cont28 unwind label %lpad26

invoke.cont28:                                    ; preds = %invoke.cont24
  %call30 = call noundef nonnull align 8 dereferenceable(40) ptr @_ZN5folly7dynamicaSEOS0_(ptr noundef nonnull align 8 dereferenceable(40) %call29, ptr noundef nonnull align 8 dereferenceable(40) %ref.tmp23) #34
  call void @_ZN5folly7dynamic7destroyEv(ptr noundef nonnull align 8 dereferenceable(40) %ref.tmp23) #34
  ret void

lpad:                                             ; preds = %invoke.cont8, %entry
  %2 = landingpad { ptr, i32 }
          cleanup
  br label %ehcleanup32

lpad6:                                            ; preds = %invoke.cont4
  %3 = landingpad { ptr, i32 }
          cleanup
  call void @_ZN5folly7dynamic7destroyEv(ptr noundef nonnull align 8 dereferenceable(40) %ref.tmp) #34
  call void @_ZNSt7__cxx1112basic_stringIcSt11char_traitsIcESaIcEED1Ev(ptr noundef nonnull align 8 dereferenceable(32) %agg.tmp2) #34
  br label %ehcleanup32

lpad16:                                           ; preds = %invoke.cont14
  %4 = landingpad { ptr, i32 }
          cleanup
  call void @_ZN5folly7dynamic7destroyEv(ptr noundef nonnull align 8 dereferenceable(40) %ref.tmp10) #34
  call void @_ZNSt7__cxx1112basic_stringIcSt11char_traitsIcESaIcEED1Ev(ptr noundef nonnull align 8 dereferenceable(32) %agg.tmp11) #34
  br label %ehcleanup32

lpad26:                                           ; preds = %invoke.cont24
  %5 = landingpad { ptr, i32 }
          cleanup
  call void @_ZN5folly7dynamic7destroyEv(ptr noundef nonnull align 8 dereferenceable(40) %ref.tmp23) #34
  br label %ehcleanup32

ehcleanup32:                                      ; preds = %lpad26, %lpad16, %lpad6, %lpad
  %.pn4 = phi { ptr, i32 } [ %5, %lpad26 ], [ %2, %lpad ], [ %4, %lpad16 ], [ %3, %lpad6 ]
  call void @_ZN5folly7dynamic7destroyEv(ptr noundef nonnull align 8 dereferenceable(40) %agg.result) #34
  resume { ptr, i32 } %.pn4
}